target datalayout = "e-m:e-p270:32:32-p271:32:32-p272:64:64-i64:64-i128:128-f80:128-n8:16:32:64-S128"
target triple = "x86_64-pc-linux-gnu"

@.str.18 = private unnamed_addr constant [30 x i8] c"../openssl/test/threadstest.c\00", align 1
@global_lock = internal global ptr null, align 8
@multi_success = internal global i32 0, align 4
@.str.109 = private unnamed_addr constant [2 x i8] c"0\00", align 1
@.str.153 = private unnamed_addr constant [3 x i8] c"%d\00", align 1
@.str.154 = private unnamed_addr constant [21 x i8] c"1.3.6.1.4.1.16604.%s\00", align 1
@.str.155 = private unnamed_addr constant [14 x i8] c"short-name-%s\00", align 1
@.str.156 = private unnamed_addr constant [13 x i8] c"long-name-%s\00", align 1
@.str.157 = private unnamed_addr constant [3 x i8] c"id\00", align 1
@.str.158 = private unnamed_addr constant [29 x i8] c"id = OBJ_create(oid, sn, ln)\00", align 1
@.str.159 = private unnamed_addr constant [41 x i8] c"OBJ_add_sigid(id, NID_sha3_256, NID_rsa)\00", align 1
@get_new_uid.current_uid = internal global i32 1073741824, align 4

; Function Attrs: nounwind uwtable
define internal void @multi_set_success(i32 noundef %0) #0 {
  %2 = alloca i32, align 4
  store i32 %0, ptr %2, align 4, !tbaa !4
  %3 = load ptr, ptr @global_lock, align 8, !tbaa !13
  %4 = call i32 @CRYPTO_THREAD_write_lock(ptr noundef %3)
  %5 = icmp eq i32 %4, 0
  br i1 %5, label %6, label %8

6:                                                ; preds = %1
  %7 = load i32, ptr %2, align 4, !tbaa !4
  store i32 %7, ptr @multi_success, align 4, !tbaa !4
  br label %12

8:                                                ; preds = %1
  %9 = load i32, ptr %2, align 4, !tbaa !4
  store i32 %9, ptr @multi_success, align 4, !tbaa !4
  %10 = load ptr, ptr @global_lock, align 8, !tbaa !13
  %11 = call i32 @CRYPTO_THREAD_unlock(ptr noundef %10)
  br label %12

12:                                               ; preds = %8, %6
  ret void
}

; Function Attrs: nounwind uwtable
define internal i32 @get_new_uid() #0 {
  %1 = alloca i32, align 4
  %2 = alloca i32, align 4
  store i32 1, ptr %1, align 4, !tbaa !4
  %3 = load i32, ptr %1, align 4
  %4 = atomicrmw add ptr @get_new_uid.current_uid, i32 %3 monotonic, align 4
  store i32 %4, ptr %2, align 4
  %5 = load i32, ptr %2, align 4, !tbaa !4
  ret i32 %5
}

; Function Attrs: nounwind uwtable
define internal void @test_obj_create_one() #0 {
  %1 = alloca [12 x i8], align 1
  %2 = alloca [40 x i8], align 16
  %3 = alloca [30 x i8], align 16
  %4 = alloca [30 x i8], align 16
  %5 = alloca i32, align 4
  call void @llvm.lifetime.start.p0(i64 12, ptr %1) #10
  call void @llvm.lifetime.start.p0(i64 40, ptr %2) #10
  call void @llvm.lifetime.start.p0(i64 30, ptr %3) #10
  call void @llvm.lifetime.start.p0(i64 30, ptr %4) #10
  call void @llvm.lifetime.start.p0(i64 4, ptr %5) #10
  %6 = call i32 @get_new_uid()
  store i32 %6, ptr %5, align 4, !tbaa !4
  %7 = getelementptr inbounds [12 x i8], ptr %1, i64 0, i64 0
  %8 = load i32, ptr %5, align 4, !tbaa !4
  %9 = call i32 (ptr, i64, ptr, ...) @BIO_snprintf(ptr noundef %7, i64 noundef 12, ptr noundef @.str.153, i32 noundef %8)
  %10 = getelementptr inbounds [40 x i8], ptr %2, i64 0, i64 0
  %11 = getelementptr inbounds [12 x i8], ptr %1, i64 0, i64 0
  %12 = call i32 (ptr, i64, ptr, ...) @BIO_snprintf(ptr noundef %10, i64 noundef 40, ptr noundef @.str.154, ptr noundef %11)
  %13 = getelementptr inbounds [30 x i8], ptr %3, i64 0, i64 0
  %14 = getelementptr inbounds [12 x i8], ptr %1, i64 0, i64 0
  %15 = call i32 (ptr, i64, ptr, ...) @BIO_snprintf(ptr noundef %13, i64 noundef 30, ptr noundef @.str.155, ptr noundef %14)
  %16 = getelementptr inbounds [30 x i8], ptr %4, i64 0, i64 0
  %17 = getelementptr inbounds [12 x i8], ptr %1, i64 0, i64 0
  %18 = call i32 (ptr, i64, ptr, ...) @BIO_snprintf(ptr noundef %16, i64 noundef 30, ptr noundef @.str.156, ptr noundef %17)
  %19 = load i32, ptr %5, align 4, !tbaa !4
  %20 = call i32 @test_int_ne(ptr noundef @.str.18, i32 noundef 1151, ptr noundef @.str.157, ptr noundef @.str.109, i32 noundef %19, i32 noundef 0)
  %21 = icmp ne i32 %20, 0
  br i1 %21, label %22, label %38

22:                                               ; preds = %0
  %23 = getelementptr inbounds [40 x i8], ptr %2, i64 0, i64 0
  %24 = getelementptr inbounds [30 x i8], ptr %3, i64 0, i64 0
  %25 = getelementptr inbounds [30 x i8], ptr %4, i64 0, i64 0
  %26 = call i32 @OBJ_create(ptr noundef %23, ptr noundef %24, ptr noundef %25)
  store i32 %26, ptr %5, align 4, !tbaa !4
  %27 = icmp ne i32 %26, 0
  %28 = zext i1 %27 to i32
  %29 = call i32 @test_true(ptr noundef @.str.18, i32 noundef 1152, ptr noundef @.str.158, i32 noundef %28)
  %30 = icmp ne i32 %29, 0
  br i1 %30, label %31, label %38

31:                                               ; preds = %22
  %32 = load i32, ptr %5, align 4, !tbaa !4
  %33 = call i32 @OBJ_add_sigid(i32 noundef %32, i32 noundef 1097, i32 noundef 19)
  %34 = icmp ne i32 %33, 0
  %35 = zext i1 %34 to i32
  %36 = call i32 @test_true(ptr noundef @.str.18, i32 noundef 1153, ptr noundef @.str.159, i32 noundef %35)
  %37 = icmp ne i32 %36, 0
  br i1 %37, label %39, label %38

38:                                               ; preds = %31, %22, %0
  call void @multi_set_success(i32 noundef 0)
  br label %39

39:                                               ; preds = %38, %31
  call void @llvm.lifetime.end.p0(i64 4, ptr %5) #10
  call void @llvm.lifetime.end.p0(i64 30, ptr %4) #10
  call void @llvm.lifetime.end.p0(i64 30, ptr %3) #10
  call void @llvm.lifetime.end.p0(i64 40, ptr %2) #10
  call void @llvm.lifetime.end.p0(i64 12, ptr %1) #10
  ret void
}