; Function Attrs: nounwind uwtable
define internal void @test_obj_create_one() #1 {
  %1 = alloca [12 x i8], align 1
  %2 = alloca [40 x i8], align 16
  %3 = alloca [30 x i8], align 16
  %4 = alloca [30 x i8], align 16
  call void @llvm.lifetime.start.p0(i64 12, ptr nonnull %1) #11
  call void @llvm.lifetime.start.p0(i64 40, ptr nonnull %2) #11
  call void @llvm.lifetime.start.p0(i64 30, ptr nonnull %3) #11
  call void @llvm.lifetime.start.p0(i64 30, ptr nonnull %4) #11
  %5 = atomicrmw add ptr @get_new_uid.current_uid, i32 1 monotonic, align 4
  %6 = call i32 (ptr, i64, ptr, ...) @BIO_snprintf(ptr noundef nonnull %1, i64 noundef 12, ptr noundef nonnull @.str.153, i32 noundef %5) #11
  %7 = call i32 (ptr, i64, ptr, ...) @BIO_snprintf(ptr noundef nonnull %2, i64 noundef 40, ptr noundef nonnull @.str.154, ptr noundef nonnull %1) #11
  %8 = call i32 (ptr, i64, ptr, ...) @BIO_snprintf(ptr noundef nonnull %3, i64 noundef 30, ptr noundef nonnull @.str.155, ptr noundef nonnull %1) #11
  %9 = call i32 (ptr, i64, ptr, ...) @BIO_snprintf(ptr noundef nonnull %4, i64 noundef 30, ptr noundef nonnull @.str.156, ptr noundef nonnull %1) #11
  %10 = call i32 @test_int_ne(ptr noundef nonnull @.str.18, i32 noundef 1151, ptr noundef nonnull @.str.157, ptr noundef nonnull @.str.109, i32 noundef %5, i32 noundef 0) #11
  %.not = icmp eq i32 %10, 0
  br i1 %.not, label %21, label %11

11:                                               ; preds = %0
  %12 = call i32 @OBJ_create(ptr noundef nonnull %2, ptr noundef nonnull %3, ptr noundef nonnull %4) #11
  %13 = icmp ne i32 %12, 0
  %14 = zext i1 %13 to i32
  %15 = call i32 @test_true(ptr noundef nonnull @.str.18, i32 noundef 1152, ptr noundef nonnull @.str.158, i32 noundef %14) #11
  %.not3 = icmp eq i32 %15, 0
  br i1 %.not3, label %21, label %16

16:                                               ; preds = %11
  %17 = call i32 @OBJ_add_sigid(i32 noundef %12, i32 noundef 1097, i32 noundef 19) #11
  %18 = icmp ne i32 %17, 0
  %19 = zext i1 %18 to i32
  %20 = call i32 @test_true(ptr noundef nonnull @.str.18, i32 noundef 1153, ptr noundef nonnull @.str.159, i32 noundef %19) #11
  %.not4 = icmp eq i32 %20, 0
  br i1 %.not4, label %21, label %multi_set_success.exit

21:                                               ; preds = %16, %11, %0
  %22 = load ptr, ptr @global_lock, align 8, !tbaa !11
  %23 = call i32 @CRYPTO_THREAD_write_lock(ptr noundef %22) #11
  %24 = icmp eq i32 %23, 0
  store i1 false, ptr @multi_success, align 4
  br i1 %24, label %multi_set_success.exit, label %25

25:                                               ; preds = %21
  %26 = load ptr, ptr @global_lock, align 8, !tbaa !11
  %27 = call i32 @CRYPTO_THREAD_unlock(ptr noundef %26) #11
  br label %multi_set_success.exit

multi_set_success.exit:                           ; preds = %25, %21, %16
  call void @llvm.lifetime.end.p0(i64 30, ptr nonnull %4) #11
  call void @llvm.lifetime.end.p0(i64 30, ptr nonnull %3) #11
  call void @llvm.lifetime.end.p0(i64 40, ptr nonnull %2) #11
  call void @llvm.lifetime.end.p0(i64 12, ptr nonnull %1) #11
  ret void
}